(dp0
I1147227198115504128
(lp1
I35787166
aI23083404
aI116362700
aI184970791
aI1138356793107714048
aI855365240979988482
aI1164829077041102850
aI1027213243
aI923986599758696451
aI868646412531122177
aI4626311248
aI845833813364264961
aI981636311445487616
aI906298354979577856
aI701736921425268736
aI948091473479602181
aI3178279316
aI967979734578601985
aI1156316059860983808
aI956812705
asI1176995667673264129
(lp2
I813286
aI85603854
aI36184220
aI17919972
aI19678937
aI32372834
aI25365536
aI35094637
aI18228898
aI355050735
aI116362700
aI11348282
aI19028953
aI17842366
aI17471979
aI20567939
aI23151437
aI1352311544
aI154280902
aI16409683
asI957736147500830722
(lp3
I23083404
aI405406920
aI455408518
aI48504989
aI537270147
aI110030521
aI45016084
aI1168361921499815937
aI197137876
aI739794027550248960
aI164123356
aI156375106
aI82415882
aI108440056
aI25149376
aI44366893
aI23831682
aI889359328918032384
aI877638742122655744
aI139982566
aI1083360311493701632
aI87552738
aI3018086988
aI30379932
aI1110698510939095040
aI209248836
aI1388457180
aI231296848
aI21753094
aI24377985
aI230039795
aI805959314
aI170393291
aI1053511800
aI2346947384
aI316930595
aI20572111
aI3012999766
aI538543676
aI1591741
aI99147838
aI26918986
aI57262846
aI31012378
aI15917641
aI35773039
aI239509917
aI152565349
aI29501106
aI491350825
aI24969417
aI229895874
aI1002905192097075201
aI1614138600
aI2360121187
aI996460958368362496
aI71247584
aI967872432374734849
aI62431556
aI2163655548
aI211891109
aI2350610424
aI18008623
aI19839752
aI16896485
aI34713362
aI8559342
aI162237835
aI719382545285169153
aI2828181162
aI14293310
aI36155311
aI254218142
aI633062193
aI25023902
aI88018702
aI300081272
aI796324332322619392
aI890891
aI31406601
aI981381475638697984
aI17211031
aI109337022
aI1034870874741067781
aI39533864
aI367454278
aI305233743
aI728817979
aI63782248
aI45985208
aI584239638
aI22728561
aI116782356
aI387377405
aI179111246
aI59013741
aI40189352
aI15612015
aI3051911068
aI27393721
aI36117822
aI28572020
aI131411839
aI35935786
aI53153803
aI54284336
aI17592062
aI636534384
aI32780218
aI29512885
aI38320491
aI92164836
aI251208173
aI95340599
aI52939106
aI21164493
aI128295850
aI893140947055333376
aI307989298
aI874092400406298625
aI29116270
aI17771348
aI20600055
aI5392522
aI233783568
aI1872686198
aI13557972
aI18111396
aI406703177
aI17183689
aI141389356
aI2400446150
aI374797121
aI26268339
aI27677483
aI24474468
aI807095
aI78350344
aI19397785
aI118866204
aI14175375
asI1142439134960791557
(lp4
I23083404
aI27195114
aI1133127290840330240
aI22940219
aI335540047
aI913812620
aI715943322
aI1072135888774279170
aI241215345
aI829407718347853824
aI20177956
aI116485600
aI224221596
aI1142923196531990528
aI19426729
aI132752344
aI267425142
aI1601532284
aI1112383169926443008
aI424609982
asI1177012262785224704
(lp5
I23083404
aI380730306
aI26257166
aI50811932
aI131948686
aI733170759829327874
aI46769281
asI1177011813449424897
(lp6
I33936681
aI890891
aI365853733
aI260458077
aI303806325
aI40878677
aI263723790
aI342278669
aI36724576
aI733170759829327874
aI33583496
aI2157497975
aI73021361
aI135019364
aI425871040
aI46769281
aI83738272
aI33995409
aI353178677
aI224221596
asI1147357309456330752
(lp7
I157140968
aI23083404
aI1176998996382035969
aI1177003176031137792
aI4064802267
aI202416362
aI471311185
aI236699098
aI1059194370
aI79997653
aI32959253
aI754006735468261376
aI866953267
aI998665460488003584
asI1177012829922254848
(lp8
I171299971
aI145459615
aI200267797
aI58531272
aI34613288
aI19583545
aI155659213
aI24423418
aI23083404
aI813286
aI158487331
aI96951800
asI1177386404533493760
(lp9
I1616937668
aI246967511
aI169716412
aI36483808
aI277180205
aI69413371
aI4873308778
aI85603854
aI82955132
aI236699098
aI720843222868623363
aI157140968
aI23083404
aI1059194370
aI341166156
aI78335735
aI119509520
asI1176690193467957249
(lp10
I23083404
aI32959253
aI17919972
aI79293791
aI353805820
aI19426551
aI19923144
aI268414482
aI25365536
aI236699098
aI2922268330
aI27260086
aI3105826730
aI34507480
aI165591750
aI238687719
aI3277923464
aI11348282
aI759251
aI2823996148
asI1177007397799436294
(lp11
I19397785
aI323417384
aI14076329
aI3004231
aI19028953
aI79293791
aI880142286176231425
aI1022239538629029888
aI398323499
aI39364684
aI17230018
aI846137120209190912
aI17461978
aI46116615
aI18220175
aI185487499
aI248900032
aI409486555
aI28706024
aI369583954
asI748658475044065280
(lp12
I238431491
aI23083404
aI10671602
aI29758446
aI36803580
aI3004231
aI25365536
aI18222378
aI121258930
aI4517970557
aI569575258
aI536133635
aI341804193
aI1239766345
aI758069941
aI202535200
aI1056396672
aI1732530709
aI1684334857
aI1007128800
asI1176603241972416512
(lp13
I35982046
aI42562446
aI50811932
aI26270913
aI1059194370
aI20346956
aI151123001
aI29479000
aI158487331
aI138372303
aI140070953
aI8159472
aI14872237
aI155659213
aI533085085
aI90836187
aI96951800
aI34613288
aI19583545
aI558797310
asI739831178052669440
(lp14
I79293791
aI25365536
aI104249727
aI19248106
aI181572333
aI46335511
aI100220864
aI268414482
aI73443014
aI85603854
aI56783491
aI18222378
aI27673684
aI1059194370
aI46769281
aI203162990
aI33995409
aI255388236
aI409486555
aI34507480
asI1065612737953157121
(lp15
I35936474
aI23083404
aI890891
aI72475439
aI488026266
aI72362869
aI403179950
aI2379056251
aI2842841126
aI3197063113
aI272616327
aI1553895072
aI739386741254017024
aI909102066
aI4873345218
aI1095100417850040320
aI1152427947619311618
aI1045269435735408646
aI901349884040691712
aI63701775
asI1177011367192211456
(lp16
I380730306
aI266135518
aI1852644804
aI425871040
aI1108050829393707008
aI363811679
aI11348282
aI1059194370
aI27260086
aI2559865245
aI323417384
aI154280902
aI1146798369634803712
aI733170759829327874
aI23083404
aI2455740283
aI214201922
aI224221596
aI104040220
aI77596200
asI1177010358600515584
(lp17
I978367193720197120
aI1046094379046359041
aI726958039
aI238431491
aI155659213
aI14872237
aI71629213
aI1007128800
aI447276434
aI813946771520880640
aI243827971
aI1056396672
aI1030197444515115008
aI23083404
aI398306220
aI296235573
aI122556667
aI324076260
aI280701704
aI376420687
asI1177012140395368449
(lp18
I151123001
aI119509520
aI813286
aI155659213
aI79293791
aI236699098
aI158487331
aI1964571728
aI23083404
asI1177386799037071361
(lp19
I154280902
aI34507480
aI17919972
aI23083404
aI268414482
aI27260086
aI79293791
asI1177011898505547777
(lp20
I806081385429508096
aI970261841938034688
aI1183442424
aI2935849476
aI308570027
aI393380625
aI2340093458
aI511571153
aI281672182
aI317596462
aI141052723
aI39452658
aI143520265
aI58476851
aI89654231
aI270720082
aI75014036
aI1839871
aI119162565
aI42371856
asI1138603544209219584
(lp21
I14573900
aI22637974
aI627673190
aI44196397
aI50811932
aI23083404
aI42562446
aI19426551
aI388363439
aI36724576
aI22178780
aI403576729
aI50323173
aI43139414
aI3246743079
aI744297007
aI488751652
aI488397209
aI3066583762
aI402459634
asI1176995329608159232
(lp22
I51048910
aI23690344
aI53297035
aI18948541
aI75974281
aI1198406491
aI2893511188
aI33041426
aI90420314
aI250831586
aI23083404
aI1112588078
aI2436140142
aI15846407
as.